target datalayout = "e-m:e-p270:32:32-p271:32:32-p272:64:64-i64:64-i128:128-f80:128-n8:16:32:64-S128"
target triple = "x86_64-unknown-linux-gnu"

%"class.icu_75::UObject" = type { ptr }
%"class.icu_75::UnicodeString" = type { %"class.icu_75::Replaceable", %"union.icu_75::UnicodeString::StackBufferOrFields" }
%"class.icu_75::Replaceable" = type { %"class.icu_75::UObject" }
%"union.icu_75::UnicodeString::StackBufferOrFields" = type { %struct.anon.1, [32 x i8] }
%struct.anon.1 = type { i16, i32, i32, ptr }
%"class.icu_75::(anonymous namespace)::UTF16NFDIterator" = type { %"class.icu_75::(anonymous namespace)::NFDIterator", ptr, ptr }
%"class.icu_75::(anonymous namespace)::NFDIterator" = type { %"class.icu_75::UObject", ptr, [4 x i16], i32, i32 }
%"class.icu_75::(anonymous namespace)::FCDUTF16NFDIterator" = type { %"class.icu_75::(anonymous namespace)::UTF16NFDIterator", %"class.icu_75::UnicodeString" }

; Function Attrs: mustprogress nounwind uwtable
define internal void @_ZN6icu_7512_GLOBAL__N_111NFDIteratorD2Ev(ptr noundef nonnull align 8 dereferenceable(32) %this) unnamed_addr #0 align 2 {
entry:
  %this.addr = alloca ptr, align 8
  store ptr %this, ptr %this.addr, align 8
  %this1 = load ptr, ptr %this.addr, align 8
  call void @_ZN6icu_757UObjectD2Ev(ptr noundef nonnull align 8 dereferenceable(8) %this1) #10
  ret void
}

; Function Attrs: mustprogress nounwind uwtable
define internal void @_ZN6icu_7512_GLOBAL__N_116UTF16NFDIteratorD2Ev(ptr noundef nonnull align 8 dereferenceable(48) %this) unnamed_addr #0 align 2 {
entry:
  %this.addr = alloca ptr, align 8
  store ptr %this, ptr %this.addr, align 8
  %this1 = load ptr, ptr %this.addr, align 8
  call void @_ZN6icu_7512_GLOBAL__N_111NFDIteratorD2Ev(ptr noundef nonnull align 8 dereferenceable(32) %this1) #10
  ret void
}

; Function Attrs: mustprogress nounwind uwtable
define internal void @_ZN6icu_7512_GLOBAL__N_119FCDUTF16NFDIteratorD2Ev(ptr noundef nonnull align 8 dereferenceable(112) %this) unnamed_addr #0 align 2 {
entry:
  %this.addr = alloca ptr, align 8
  store ptr %this, ptr %this.addr, align 8
  %this1 = load ptr, ptr %this.addr, align 8
  store ptr getelementptr inbounds ({ [6 x ptr] }, ptr @_ZTVN6icu_7512_GLOBAL__N_119FCDUTF16NFDIteratorE, i32 0, i32 0, i32 2), ptr %this1, align 8
  %str = getelementptr inbounds %"class.icu_75::(anonymous namespace)::FCDUTF16NFDIterator", ptr %this1, i32 0, i32 1
  call void @_ZN6icu_7513UnicodeStringD1Ev(ptr noundef nonnull align 8 dereferenceable(64) %str) #10
  call void @_ZN6icu_7512_GLOBAL__N_116UTF16NFDIteratorD2Ev(ptr noundef nonnull align 8 dereferenceable(48) %this1) #10
  ret void
}

; Function Attrs: mustprogress nounwind uwtable
define internal void @_ZN6icu_7512_GLOBAL__N_119FCDUTF16NFDIteratorD0Ev(ptr noundef nonnull align 8 dereferenceable(112) %this) unnamed_addr #0 align 2 {
entry:
  %this.addr = alloca ptr, align 8
  store ptr %this, ptr %this.addr, align 8
  %this1 = load ptr, ptr %this.addr, align 8
  call void @_ZN6icu_7512_GLOBAL__N_119FCDUTF16NFDIteratorD2Ev(ptr noundef nonnull align 8 dereferenceable(112) %this1) #10
  call void @_ZN6icu_757UMemorydlEPv(ptr noundef %this1) #10
  ret void
}