; Function Attrs: mustprogress nounwind uwtable
define internal void @_ZN6icu_7512_GLOBAL__N_119FCDUTF16NFDIteratorD0Ev(ptr noundef nonnull align 8 dereferenceable(112) %this) unnamed_addr #0 align 2 {
entry:
  store ptr getelementptr inbounds ({ [6 x ptr] }, ptr @_ZTVN6icu_7512_GLOBAL__N_119FCDUTF16NFDIteratorE, i64 0, i32 0, i64 2), ptr %this, align 8
  %str.i = getelementptr inbounds i8, ptr %this, i64 48
  tail call void @_ZN6icu_7513UnicodeStringD1Ev(ptr noundef nonnull align 8 dereferenceable(64) %str.i) #17
  tail call void @_ZN6icu_757UObjectD2Ev(ptr noundef nonnull align 8 dereferenceable(8) %this) #17
  tail call void @_ZN6icu_757UMemorydlEPv(ptr noundef nonnull %this) #17
  ret void
}